target datalayout = "e-m:e-p270:32:32-p271:32:32-p272:64:64-i64:64-i128:128-f80:128-n8:16:32:64-S128"
target triple = "x86_64-pc-linux-gnu"

%"class.colvarmodule::memory_stream" = type { ptr, ptr, %"class.std::vector", i64, i64, i32, i64 }
%"class.std::vector" = type { %"struct.std::_Vector_base" }
%"struct.std::_Vector_base" = type { %"struct.std::_Vector_base<unsigned char, std::allocator<unsigned char>>::_Vector_impl" }
%"struct.std::_Vector_base<unsigned char, std::allocator<unsigned char>>::_Vector_impl" = type { %"struct.std::_Vector_base<unsigned char, std::allocator<unsigned char>>::_Vector_impl_data" }
%"struct.std::_Vector_base<unsigned char, std::allocator<unsigned char>>::_Vector_impl_data" = type { ptr, ptr, ptr }
%"class.std::__cxx11::basic_string" = type { %"struct.std::__cxx11::basic_string<char>::_Alloc_hider", i64, %union.anon }
%"struct.std::__cxx11::basic_string<char>::_Alloc_hider" = type { ptr }
%union.anon = type { i64, [8 x i8] }

; Function Attrs: mustprogress nounwind uwtable
define linkonce_odr noundef ptr @_ZNKSt6vectorIhSaIhEE11_M_data_ptrIhEEPT_S4_(ptr noundef nonnull align 8 dereferenceable(24) %0, ptr noundef %1) #2 comdat align 2 {
  %3 = alloca ptr, align 8
  %4 = alloca ptr, align 8
  store ptr %0, ptr %3, align 8, !tbaa !20
  store ptr %1, ptr %4, align 8, !tbaa !27
  %5 = load ptr, ptr %4, align 8, !tbaa !27
  ret ptr %5
}

; Function Attrs: inlinehint mustprogress nounwind uwtable
define linkonce_odr noundef i32 @_ZStorSt12_Ios_IostateS_(i32 noundef %0, i32 noundef %1) #4 comdat {
  %3 = alloca i32, align 4
  %4 = alloca i32, align 4
  store i32 %0, ptr %3, align 4, !tbaa !24
  store i32 %1, ptr %4, align 4, !tbaa !24
  %5 = load i32, ptr %3, align 4, !tbaa !24
  %6 = load i32, ptr %4, align 4, !tbaa !24
  %7 = or i32 %5, %6
  ret i32 %7
}

; Function Attrs: mustprogress nounwind uwtable
define linkonce_odr noundef ptr @_ZNKSt6vectorIhSaIhEE4dataEv(ptr noundef nonnull align 8 dereferenceable(24) %0) #2 comdat align 2 {
  %2 = alloca ptr, align 8
  store ptr %0, ptr %2, align 8, !tbaa !20
  %3 = load ptr, ptr %2, align 8
  %4 = getelementptr inbounds nuw %"struct.std::_Vector_base", ptr %3, i32 0, i32 0
  %5 = getelementptr inbounds nuw %"struct.std::_Vector_base<unsigned char, std::allocator<unsigned char>>::_Vector_impl_data", ptr %4, i32 0, i32 0
  %6 = load ptr, ptr %5, align 8, !tbaa !23
  %7 = call noundef ptr @_ZNKSt6vectorIhSaIhEE11_M_data_ptrIhEEPT_S4_(ptr noundef nonnull align 8 dereferenceable(24) %3, ptr noundef %6) #13
  ret ptr %7
}

; Function Attrs: inlinehint mustprogress uwtable
define linkonce_odr noundef nonnull align 4 dereferenceable(4) ptr @_ZStoRRSt12_Ios_IostateS_(ptr noundef nonnull align 4 dereferenceable(4) %0, i32 noundef %1) #3 comdat {
  %3 = alloca ptr, align 8
  %4 = alloca i32, align 4
  store ptr %0, ptr %3, align 8, !tbaa !42
  store i32 %1, ptr %4, align 4, !tbaa !24
  %5 = load ptr, ptr %3, align 8, !tbaa !42
  %6 = load i32, ptr %5, align 4, !tbaa !24
  %7 = load i32, ptr %4, align 4, !tbaa !24
  %8 = call noundef i32 @_ZStorSt12_Ios_IostateS_(i32 noundef %6, i32 noundef %7)
  %9 = load ptr, ptr %3, align 8, !tbaa !42
  store i32 %8, ptr %9, align 4, !tbaa !24
  ret ptr %9
}

; Function Attrs: inlinehint mustprogress nounwind uwtable
define linkonce_odr void @_ZN12colvarmodule13memory_stream5clearEv(ptr noundef nonnull align 8 dereferenceable(72) %0) #4 comdat align 2 {
  %2 = alloca ptr, align 8
  store ptr %0, ptr %2, align 8, !tbaa !4
  %3 = load ptr, ptr %2, align 8
  %4 = getelementptr inbounds nuw %"class.colvarmodule::memory_stream", ptr %3, i32 0, i32 5
  store i32 0, ptr %4, align 8, !tbaa !25
  ret void
}

; Function Attrs: mustprogress nounwind uwtable
define available_externally noundef i64 @_ZNKSt7__cxx1112basic_stringIcSt11char_traitsIcESaIcEE4sizeEv(ptr noundef nonnull align 8 dereferenceable(32) %0) #2 align 2 {
  %2 = alloca ptr, align 8
  store ptr %0, ptr %2, align 8, !tbaa !43
  %3 = load ptr, ptr %2, align 8
  %4 = getelementptr inbounds nuw %"class.std::__cxx11::basic_string", ptr %3, i32 0, i32 1
  %5 = load i64, ptr %4, align 8, !tbaa !45
  ret i64 %5
}

; Function Attrs: inlinehint mustprogress nounwind uwtable
define linkonce_odr noundef ptr @_ZNK12colvarmodule13memory_stream12input_bufferEv(ptr noundef nonnull align 8 dereferenceable(72) %0) #4 comdat align 2 {
  %2 = alloca ptr, align 8
  store ptr %0, ptr %2, align 8, !tbaa !4
  %3 = load ptr, ptr %2, align 8
  %4 = getelementptr inbounds nuw %"class.colvarmodule::memory_stream", ptr %3, i32 0, i32 1
  %5 = load ptr, ptr %4, align 8, !tbaa !62
  %6 = icmp ne ptr %5, null
  br i1 %6, label %7, label %10

7:                                                ; preds = %1
  %8 = getelementptr inbounds nuw %"class.colvarmodule::memory_stream", ptr %3, i32 0, i32 1
  %9 = load ptr, ptr %8, align 8, !tbaa !62
  br label %13

10:                                               ; preds = %1
  %11 = getelementptr inbounds nuw %"class.colvarmodule::memory_stream", ptr %3, i32 0, i32 2
  %12 = call noundef ptr @_ZNKSt6vectorIhSaIhEE4dataEv(ptr noundef nonnull align 8 dereferenceable(24) %11) #13
  br label %13

13:                                               ; preds = %10, %7
  %14 = phi ptr [ %9, %7 ], [ %12, %10 ]
  ret ptr %14
}

; Function Attrs: inlinehint mustprogress uwtable
define linkonce_odr void @_ZN12colvarmodule13memory_stream8setstateESt12_Ios_Iostate(ptr noundef nonnull align 8 dereferenceable(72) %0, i32 noundef %1) #3 comdat align 2 {
  %3 = alloca ptr, align 8
  %4 = alloca i32, align 4
  store ptr %0, ptr %3, align 8, !tbaa !4
  store i32 %1, ptr %4, align 4, !tbaa !24
  %5 = load ptr, ptr %3, align 8
  %6 = load i32, ptr %4, align 4, !tbaa !24
  %7 = getelementptr inbounds nuw %"class.colvarmodule::memory_stream", ptr %5, i32 0, i32 5
  %8 = call noundef nonnull align 4 dereferenceable(4) ptr @_ZStoRRSt12_Ios_IostateS_(ptr noundef nonnull align 4 dereferenceable(4) %7, i32 noundef %6)
  ret void
}

; Function Attrs: inlinehint mustprogress uwtable
define linkonce_odr void @_ZN12colvarmodule13memory_stream12done_readingEv(ptr noundef nonnull align 8 dereferenceable(72) %0) #3 comdat align 2 {
  %2 = alloca ptr, align 8
  store ptr %0, ptr %2, align 8, !tbaa !4
  %3 = load ptr, ptr %2, align 8
  call void @_ZN12colvarmodule13memory_stream5clearEv(ptr noundef nonnull align 8 dereferenceable(72) %3)
  ret void
}

; Function Attrs: mustprogress uwtable
define available_externally noundef nonnull align 8 dereferenceable(32) ptr @_ZNSt7__cxx1112basic_stringIcSt11char_traitsIcESaIcEE6assignEPKcm(ptr noundef nonnull align 8 dereferenceable(32) %0, ptr noundef %1, i64 noundef %2) #0 align 2 {
  %4 = alloca ptr, align 8
  %5 = alloca ptr, align 8
  %6 = alloca i64, align 8
  store ptr %0, ptr %4, align 8, !tbaa !43
  store ptr %1, ptr %5, align 8, !tbaa !27
  store i64 %2, ptr %6, align 8, !tbaa !9
  %7 = load ptr, ptr %4, align 8
  %8 = call noundef i64 @_ZNKSt7__cxx1112basic_stringIcSt11char_traitsIcESaIcEE4sizeEv(ptr noundef nonnull align 8 dereferenceable(32) %7) #13
  %9 = load ptr, ptr %5, align 8, !tbaa !27
  %10 = load i64, ptr %6, align 8, !tbaa !9
  %11 = call noundef nonnull align 8 dereferenceable(32) ptr @_ZNSt7__cxx1112basic_stringIcSt11char_traitsIcESaIcEE10_M_replaceEmmPKcm(ptr noundef nonnull align 8 dereferenceable(32) %7, i64 noundef 0, i64 noundef %8, ptr noundef %9, i64 noundef %10)
  ret ptr %11
}

; Function Attrs: inlinehint mustprogress nounwind uwtable
define linkonce_odr void @_ZN12colvarmodule13memory_stream13incr_read_posEm(ptr noundef nonnull align 8 dereferenceable(72) %0, i64 noundef %1) #4 comdat align 2 {
  %3 = alloca ptr, align 8
  %4 = alloca i64, align 8
  store ptr %0, ptr %3, align 8, !tbaa !4
  store i64 %1, ptr %4, align 8, !tbaa !9
  %5 = load ptr, ptr %3, align 8
  %6 = load i64, ptr %4, align 8, !tbaa !9
  %7 = getelementptr inbounds nuw %"class.colvarmodule::memory_stream", ptr %5, i32 0, i32 6
  %8 = load i64, ptr %7, align 8, !tbaa !61
  %9 = add i64 %8, %6
  store i64 %9, ptr %7, align 8, !tbaa !61
  ret void
}

; Function Attrs: inlinehint mustprogress uwtable
define linkonce_odr noundef ptr @_ZNK12colvarmodule13memory_stream14input_locationEv(ptr noundef nonnull align 8 dereferenceable(72) %0) #3 comdat align 2 {
  %2 = alloca ptr, align 8
  store ptr %0, ptr %2, align 8, !tbaa !4
  %3 = load ptr, ptr %2, align 8
  %4 = call noundef ptr @_ZNK12colvarmodule13memory_stream12input_bufferEv(ptr noundef nonnull align 8 dereferenceable(72) %3)
  %5 = getelementptr inbounds nuw %"class.colvarmodule::memory_stream", ptr %3, i32 0, i32 6
  %6 = load i64, ptr %5, align 8, !tbaa !61
  %7 = getelementptr inbounds nuw i8, ptr %4, i64 %6
  ret ptr %7
}

; Function Attrs: inlinehint mustprogress nounwind uwtable
define linkonce_odr noundef zeroext i1 @_ZN12colvarmodule13memory_stream13has_remainingEm(ptr noundef nonnull align 8 dereferenceable(72) %0, i64 noundef %1) #4 comdat align 2 {
  %3 = alloca ptr, align 8
  %4 = alloca i64, align 8
  store ptr %0, ptr %3, align 8, !tbaa !4
  store i64 %1, ptr %4, align 8, !tbaa !9
  %5 = load ptr, ptr %3, align 8
  %6 = load i64, ptr %4, align 8, !tbaa !9
  %7 = getelementptr inbounds nuw %"class.colvarmodule::memory_stream", ptr %5, i32 0, i32 3
  %8 = load i64, ptr %7, align 8, !tbaa !48
  %9 = getelementptr inbounds nuw %"class.colvarmodule::memory_stream", ptr %5, i32 0, i32 6
  %10 = load i64, ptr %9, align 8, !tbaa !61
  %11 = sub i64 %8, %10
  %12 = icmp ule i64 %6, %11
  ret i1 %12
}

; Function Attrs: inlinehint mustprogress uwtable
define linkonce_odr void @_ZN12colvarmodule13memory_stream13begin_readingEv(ptr noundef nonnull align 8 dereferenceable(72) %0) #3 comdat align 2 {
  %2 = alloca ptr, align 8
  store ptr %0, ptr %2, align 8, !tbaa !4
  %3 = load ptr, ptr %2, align 8
  call void @_ZN12colvarmodule13memory_stream8setstateESt12_Ios_Iostate(ptr noundef nonnull align 8 dereferenceable(72) %3, i32 noundef 2)
  ret void
}

; Function Attrs: mustprogress uwtable
define void @_ZN12colvarmodule13memory_stream11read_objectINSt7__cxx1112basic_stringIcSt11char_traitsIcESaIcEEEEEvRT_(ptr noundef nonnull align 8 dereferenceable(72) %0, ptr noundef nonnull align 8 dereferenceable(32) %1) #0 align 2 {
  %3 = alloca ptr, align 8
  %4 = alloca ptr, align 8
  %5 = alloca i64, align 8
  store ptr %0, ptr %3, align 8, !tbaa !4
  store ptr %1, ptr %4, align 8, !tbaa !43
  %6 = load ptr, ptr %3, align 8
  call void @_ZN12colvarmodule13memory_stream13begin_readingEv(ptr noundef nonnull align 8 dereferenceable(72) %6)
  call void @llvm.lifetime.start.p0(i64 8, ptr %5) #13
  store i64 0, ptr %5, align 8, !tbaa !9
  %7 = call noundef zeroext i1 @_ZN12colvarmodule13memory_stream13has_remainingEm(ptr noundef nonnull align 8 dereferenceable(72) %6, i64 noundef 8)
  br i1 %7, label %8, label %22

8:                                                ; preds = %2
  %9 = call noundef ptr @_ZNK12colvarmodule13memory_stream14input_locationEv(ptr noundef nonnull align 8 dereferenceable(72) %6)
  call void @llvm.memcpy.p0.p0.i64(ptr align 8 %5, ptr align 1 %9, i64 8, i1 false)
  call void @_ZN12colvarmodule13memory_stream13incr_read_posEm(ptr noundef nonnull align 8 dereferenceable(72) %6, i64 noundef 8)
  %10 = load i64, ptr %5, align 8, !tbaa !9
  %11 = mul i64 %10, 1
  %12 = call noundef zeroext i1 @_ZN12colvarmodule13memory_stream13has_remainingEm(ptr noundef nonnull align 8 dereferenceable(72) %6, i64 noundef %11)
  br i1 %12, label %13, label %20

13:                                               ; preds = %8
  %14 = load ptr, ptr %4, align 8, !tbaa !43
  %15 = call noundef ptr @_ZNK12colvarmodule13memory_stream14input_locationEv(ptr noundef nonnull align 8 dereferenceable(72) %6)
  %16 = load i64, ptr %5, align 8, !tbaa !9
  %17 = call noundef nonnull align 8 dereferenceable(32) ptr @_ZNSt7__cxx1112basic_stringIcSt11char_traitsIcESaIcEE6assignEPKcm(ptr noundef nonnull align 8 dereferenceable(32) %14, ptr noundef %15, i64 noundef %16)
  %18 = load i64, ptr %5, align 8, !tbaa !9
  %19 = mul i64 %18, 1
  call void @_ZN12colvarmodule13memory_stream13incr_read_posEm(ptr noundef nonnull align 8 dereferenceable(72) %6, i64 noundef %19)
  call void @_ZN12colvarmodule13memory_stream12done_readingEv(ptr noundef nonnull align 8 dereferenceable(72) %6)
  br label %21

20:                                               ; preds = %8
  call void @_ZN12colvarmodule13memory_stream8setstateESt12_Ios_Iostate(ptr noundef nonnull align 8 dereferenceable(72) %6, i32 noundef 4)
  br label %21

21:                                               ; preds = %20, %13
  br label %22

22:                                               ; preds = %21, %2
  call void @llvm.lifetime.end.p0(i64 8, ptr %5) #13
  ret void
}